; ModuleID = '46/2664.c'
source_filename = "46/2664.c"
target datalayout = "e-m:e-p270:32:32-p271:32:32-p272:64:64-i64:64-f80:128-n8:16:32:64-S128"
target triple = "x86_64-pc-linux-gnu"

@.str = private unnamed_addr constant [6 x i8] c"%d %d\00", align 1
@.str.1 = private unnamed_addr constant [3 x i8] c"%d\00", align 1
@.str.2 = private unnamed_addr constant [4 x i8] c"%d\0A\00", align 1

; Function Attrs: noinline nounwind uwtable
define dso_local i32 @main(i32 %0, i8** %1) #0 {
  %3 = alloca i32, align 4
  %4 = alloca i32, align 4
  %5 = alloca i8**, align 8
  %6 = alloca i32, align 4
  %7 = alloca i32, align 4
  %8 = alloca i32, align 4
  %9 = alloca i32, align 4
  %10 = alloca i32, align 4
  %11 = alloca [100 x [100 x i32]], align 16
  %12 = alloca i32, align 4
  store i32 0, i32* %3, align 4
  store i32 %0, i32* %4, align 4
  store i8** %1, i8*** %5, align 8
  store i32 0, i32* %12, align 4
  %13 = call i32 (i8*, ...) @__isoc99_scanf(i8* getelementptr inbounds ([6 x i8], [6 x i8]* @.str, i64 0, i64 0), i32* %6, i32* %7)
  store i32 0, i32* %9, align 4
  br label %14

14:                                               ; preds = %35, %2
  %15 = load i32, i32* %9, align 4
  %16 = load i32, i32* %6, align 4
  %17 = icmp slt i32 %15, %16
  br i1 %17, label %18, label %38

18:                                               ; preds = %14
  store i32 0, i32* %10, align 4
  br label %19

19:                                               ; preds = %31, %18
  %20 = load i32, i32* %10, align 4
  %21 = load i32, i32* %7, align 4
  %22 = icmp slt i32 %20, %21
  br i1 %22, label %23, label %34

23:                                               ; preds = %19
  %24 = load i32, i32* %9, align 4
  %25 = sext i32 %24 to i64
  %26 = getelementptr inbounds [100 x [100 x i32]], [100 x [100 x i32]]* %11, i64 0, i64 %25
  %27 = load i32, i32* %10, align 4
  %28 = sext i32 %27 to i64
  %29 = getelementptr inbounds [100 x i32], [100 x i32]* %26, i64 0, i64 %28
  %30 = call i32 (i8*, ...) @__isoc99_scanf(i8* getelementptr inbounds ([3 x i8], [3 x i8]* @.str.1, i64 0, i64 0), i32* %29)
  br label %31

31:                                               ; preds = %23
  %32 = load i32, i32* %10, align 4
  %33 = add nsw i32 %32, 1
  store i32 %33, i32* %10, align 4
  br label %19

34:                                               ; preds = %19
  br label %35

35:                                               ; preds = %34
  %36 = load i32, i32* %9, align 4
  %37 = add nsw i32 %36, 1
  store i32 %37, i32* %9, align 4
  br label %14

38:                                               ; preds = %14
  store i32 0, i32* %8, align 4
  br label %39

39:                                               ; preds = %171, %38
  %40 = load i32, i32* %8, align 4
  %41 = load i32, i32* %6, align 4
  %42 = icmp sle i32 %40, %41
  br i1 %42, label %43, label %174

43:                                               ; preds = %39
  %44 = load i32, i32* %8, align 4
  store i32 %44, i32* %9, align 4
  br label %45

45:                                               ; preds = %62, %43
  %46 = load i32, i32* %9, align 4
  %47 = load i32, i32* %7, align 4
  %48 = load i32, i32* %8, align 4
  %49 = sub nsw i32 %47, %48
  %50 = icmp slt i32 %46, %49
  br i1 %50, label %51, label %65

51:                                               ; preds = %45
  %52 = load i32, i32* %8, align 4
  %53 = sext i32 %52 to i64
  %54 = getelementptr inbounds [100 x [100 x i32]], [100 x [100 x i32]]* %11, i64 0, i64 %53
  %55 = load i32, i32* %9, align 4
  %56 = sext i32 %55 to i64
  %57 = getelementptr inbounds [100 x i32], [100 x i32]* %54, i64 0, i64 %56
  %58 = load i32, i32* %57, align 4
  %59 = call i32 (i8*, ...) @printf(i8* getelementptr inbounds ([4 x i8], [4 x i8]* @.str.2, i64 0, i64 0), i32 %58)
  %60 = load i32, i32* %12, align 4
  %61 = add nsw i32 %60, 1
  store i32 %61, i32* %12, align 4
  br label %62

62:                                               ; preds = %51
  %63 = load i32, i32* %9, align 4
  %64 = add nsw i32 %63, 1
  store i32 %64, i32* %9, align 4
  br label %45

65:                                               ; preds = %45
  %66 = load i32, i32* %12, align 4
  %67 = load i32, i32* %6, align 4
  %68 = load i32, i32* %7, align 4
  %69 = mul nsw i32 %67, %68
  %70 = icmp eq i32 %66, %69
  br i1 %70, label %71, label %72

71:                                               ; preds = %65
  br label %174

72:                                               ; preds = %65
  %73 = load i32, i32* %8, align 4
  %74 = add nsw i32 %73, 1
  store i32 %74, i32* %10, align 4
  br label %75

75:                                               ; preds = %95, %72
  %76 = load i32, i32* %10, align 4
  %77 = load i32, i32* %6, align 4
  %78 = load i32, i32* %8, align 4
  %79 = sub nsw i32 %77, %78
  %80 = icmp slt i32 %76, %79
  br i1 %80, label %81, label %98

81:                                               ; preds = %75
  %82 = load i32, i32* %10, align 4
  %83 = sext i32 %82 to i64
  %84 = getelementptr inbounds [100 x [100 x i32]], [100 x [100 x i32]]* %11, i64 0, i64 %83
  %85 = load i32, i32* %7, align 4
  %86 = load i32, i32* %8, align 4
  %87 = add nsw i32 %86, 1
  %88 = sub nsw i32 %85, %87
  %89 = sext i32 %88 to i64
  %90 = getelementptr inbounds [100 x i32], [100 x i32]* %84, i64 0, i64 %89
  %91 = load i32, i32* %90, align 4
  %92 = call i32 (i8*, ...) @printf(i8* getelementptr inbounds ([4 x i8], [4 x i8]* @.str.2, i64 0, i64 0), i32 %91)
  %93 = load i32, i32* %12, align 4
  %94 = add nsw i32 %93, 1
  store i32 %94, i32* %12, align 4
  br label %95

95:                                               ; preds = %81
  %96 = load i32, i32* %10, align 4
  %97 = add nsw i32 %96, 1
  store i32 %97, i32* %10, align 4
  br label %75

98:                                               ; preds = %75
  %99 = load i32, i32* %12, align 4
  %100 = load i32, i32* %6, align 4
  %101 = load i32, i32* %7, align 4
  %102 = mul nsw i32 %100, %101
  %103 = icmp eq i32 %99, %102
  br i1 %103, label %104, label %105

104:                                              ; preds = %98
  br label %174

105:                                              ; preds = %98
  %106 = load i32, i32* %7, align 4
  %107 = load i32, i32* %8, align 4
  %108 = add nsw i32 %107, 1
  %109 = sub nsw i32 %106, %108
  %110 = sub nsw i32 %109, 1
  store i32 %110, i32* %9, align 4
  br label %111

111:                                              ; preds = %129, %105
  %112 = load i32, i32* %9, align 4
  %113 = load i32, i32* %8, align 4
  %114 = icmp sge i32 %112, %113
  br i1 %114, label %115, label %132

115:                                              ; preds = %111
  %116 = load i32, i32* %6, align 4
  %117 = load i32, i32* %8, align 4
  %118 = add nsw i32 %117, 1
  %119 = sub nsw i32 %116, %118
  %120 = sext i32 %119 to i64
  %121 = getelementptr inbounds [100 x [100 x i32]], [100 x [100 x i32]]* %11, i64 0, i64 %120
  %122 = load i32, i32* %9, align 4
  %123 = sext i32 %122 to i64
  %124 = getelementptr inbounds [100 x i32], [100 x i32]* %121, i64 0, i64 %123
  %125 = load i32, i32* %124, align 4
  %126 = call i32 (i8*, ...) @printf(i8* getelementptr inbounds ([4 x i8], [4 x i8]* @.str.2, i64 0, i64 0), i32 %125)
  %127 = load i32, i32* %12, align 4
  %128 = add nsw i32 %127, 1
  store i32 %128, i32* %12, align 4
  br label %129

129:                                              ; preds = %115
  %130 = load i32, i32* %9, align 4
  %131 = add nsw i32 %130, -1
  store i32 %131, i32* %9, align 4
  br label %111

132:                                              ; preds = %111
  %133 = load i32, i32* %12, align 4
  %134 = load i32, i32* %6, align 4
  %135 = load i32, i32* %7, align 4
  %136 = mul nsw i32 %134, %135
  %137 = icmp eq i32 %133, %136
  br i1 %137, label %138, label %139

138:                                              ; preds = %132
  br label %174

139:                                              ; preds = %132
  %140 = load i32, i32* %6, align 4
  %141 = load i32, i32* %8, align 4
  %142 = add nsw i32 %141, 1
  %143 = sub nsw i32 %140, %142
  %144 = sub nsw i32 %143, 1
  store i32 %144, i32* %10, align 4
  br label %145

145:                                              ; preds = %160, %139
  %146 = load i32, i32* %10, align 4
  %147 = load i32, i32* %8, align 4
  %148 = icmp sgt i32 %146, %147
  br i1 %148, label %149, label %163

149:                                              ; preds = %145
  %150 = load i32, i32* %10, align 4
  %151 = sext i32 %150 to i64
  %152 = getelementptr inbounds [100 x [100 x i32]], [100 x [100 x i32]]* %11, i64 0, i64 %151
  %153 = load i32, i32* %8, align 4
  %154 = sext i32 %153 to i64
  %155 = getelementptr inbounds [100 x i32], [100 x i32]* %152, i64 0, i64 %154
  %156 = load i32, i32* %155, align 4
  %157 = call i32 (i8*, ...) @printf(i8* getelementptr inbounds ([4 x i8], [4 x i8]* @.str.2, i64 0, i64 0), i32 %156)
  %158 = load i32, i32* %12, align 4
  %159 = add nsw i32 %158, 1
  store i32 %159, i32* %12, align 4
  br label %160

160:                                              ; preds = %149
  %161 = load i32, i32* %10, align 4
  %162 = add nsw i32 %161, -1
  store i32 %162, i32* %10, align 4
  br label %145

163:                                              ; preds = %145
  %164 = load i32, i32* %12, align 4
  %165 = load i32, i32* %6, align 4
  %166 = load i32, i32* %7, align 4
  %167 = mul nsw i32 %165, %166
  %168 = icmp eq i32 %164, %167
  br i1 %168, label %169, label %170

169:                                              ; preds = %163
  br label %174

170:                                              ; preds = %163
  br label %171

171:                                              ; preds = %170
  %172 = load i32, i32* %8, align 4
  %173 = add nsw i32 %172, 1
  store i32 %173, i32* %8, align 4
  br label %39

174:                                              ; preds = %169, %138, %104, %71, %39
  ret i32 0
}

declare dso_local i32 @__isoc99_scanf(i8*, ...) #1

declare dso_local i32 @printf(i8*, ...) #1


!llvm.module.flags = !{!0}
!llvm.ident = !{!1}

!0 = !{i32 1, !"wchar_size", i32 4}
!1 = !{!"clang version 10.0.0-4ubuntu1 "}
